target datalayout = "e-m:e-p270:32:32-p271:32:32-p272:64:64-i64:64-i128:128-f80:128-n8:16:32:64-S128"
target triple = "x86_64-pc-linux-gnu"

%struct.pmix_object_t = type { %union.pthread_mutex_t, ptr, i32, %struct.pmix_tma }
%union.pthread_mutex_t = type { %struct.__pthread_mutex_s }
%struct.__pthread_mutex_s = type { i32, i32, i32, i32, i32, i16, i16, %struct.__pthread_internal_list }
%struct.__pthread_internal_list = type { ptr, ptr }
%struct.pmix_tma = type { ptr, ptr, ptr, ptr, ptr, ptr, ptr, ptr }
%struct.pmix_list_item_t = type { %struct.pmix_object_t, ptr, ptr, i32 }
%struct.pmix_bfrop_type_info_t = type { %struct.pmix_object_t, i16, ptr, ptr, ptr, ptr, ptr }
%struct.pmix_pointer_array_t = type { %struct.pmix_object_t, i32, i32, i32, i32, i32, ptr, ptr }
%struct.pmix_kval_t = type { %struct.pmix_list_item_t, ptr, ptr }

; Function Attrs: inlinehint nounwind uwtable
define internal ptr @pmix_pointer_array_get_item(ptr noundef %0, i32 noundef %1) #3 {
  %3 = alloca ptr, align 8
  %4 = alloca ptr, align 8
  %5 = alloca i32, align 4
  %6 = alloca ptr, align 8
  %7 = alloca i32, align 4
  store ptr %0, ptr %4, align 8, !tbaa !3
  store i32 %1, ptr %5, align 4, !tbaa !9
  call void @llvm.lifetime.start.p0(i64 8, ptr %6) #9
  %8 = load i32, ptr %5, align 4, !tbaa !9
  %9 = icmp sgt i32 0, %8
  br i1 %9, label %16, label %10

10:                                               ; preds = %2
  %11 = load ptr, ptr %4, align 8, !tbaa !3
  %12 = getelementptr inbounds nuw %struct.pmix_pointer_array_t, ptr %11, i32 0, i32 3
  %13 = load i32, ptr %12, align 8, !tbaa !22
  %14 = load i32, ptr %5, align 4, !tbaa !9
  %15 = icmp sle i32 %13, %14
  br label %16

16:                                               ; preds = %10, %2
  %17 = phi i1 [ true, %2 ], [ %15, %10 ]
  %18 = xor i1 %17, true
  %19 = xor i1 %18, true
  %20 = zext i1 %19 to i32
  %21 = sext i32 %20 to i64
  %22 = call i64 @llvm.expect.i64(i64 %21, i64 0)
  %23 = icmp ne i64 %22, 0
  br i1 %23, label %24, label %25

24:                                               ; preds = %16
  store ptr null, ptr %3, align 8
  store i32 1, ptr %7, align 4
  br label %34

25:                                               ; preds = %16
  %26 = load ptr, ptr %4, align 8, !tbaa !3
  %27 = getelementptr inbounds nuw %struct.pmix_pointer_array_t, ptr %26, i32 0, i32 7
  %28 = load ptr, ptr %27, align 8, !tbaa !25
  %29 = load i32, ptr %5, align 4, !tbaa !9
  %30 = sext i32 %29 to i64
  %31 = getelementptr inbounds ptr, ptr %28, i64 %30
  %32 = load ptr, ptr %31, align 8, !tbaa !8
  store ptr %32, ptr %6, align 8, !tbaa !8
  %33 = load ptr, ptr %6, align 8, !tbaa !8
  store ptr %33, ptr %3, align 8
  store i32 1, ptr %7, align 4
  br label %34

34:                                               ; preds = %25, %24
  call void @llvm.lifetime.end.p0(i64 8, ptr %6) #9
  %35 = load ptr, ptr %3, align 8
  ret ptr %35
}

; Function Attrs: nounwind uwtable
define i32 @pmix_bfrops_base_pack_kval(ptr noundef %0, ptr noundef %1, ptr noundef %2, i32 noundef %3, i16 noundef zeroext %4) #0 {
  %6 = alloca i32, align 4
  %7 = alloca ptr, align 8
  %8 = alloca ptr, align 8
  %9 = alloca ptr, align 8
  %10 = alloca i32, align 4
  %11 = alloca i16, align 2
  %12 = alloca ptr, align 8
  %13 = alloca i32, align 4
  %14 = alloca i32, align 4
  %15 = alloca ptr, align 8
  %16 = alloca i32, align 4
  %17 = alloca ptr, align 8
  store ptr %0, ptr %7, align 8, !tbaa !3
  store ptr %1, ptr %8, align 8, !tbaa !8
  store ptr %2, ptr %9, align 8, !tbaa !8
  store i32 %3, ptr %10, align 4, !tbaa !9
  store i16 %4, ptr %11, align 2, !tbaa !11
  call void @llvm.lifetime.start.p0(i64 8, ptr %12) #9
  call void @llvm.lifetime.start.p0(i64 4, ptr %13) #9
  call void @llvm.lifetime.start.p0(i64 4, ptr %14) #9
  %18 = load ptr, ptr %9, align 8, !tbaa !8
  store ptr %18, ptr %12, align 8, !tbaa !8
  store i32 0, ptr %13, align 4, !tbaa !9
  br label %19

19:                                               ; preds = %77, %5
  %20 = load i32, ptr %13, align 4, !tbaa !9
  %21 = load i32, ptr %10, align 4, !tbaa !9
  %22 = icmp slt i32 %20, %21
  br i1 %22, label %23, label %80

23:                                               ; preds = %19
  br label %24

24:                                               ; preds = %23
  call void @llvm.lifetime.start.p0(i64 8, ptr %15) #9
  %25 = load ptr, ptr %7, align 8, !tbaa !3
  %26 = call ptr @pmix_pointer_array_get_item(ptr noundef %25, i32 noundef 3)
  store ptr %26, ptr %15, align 8, !tbaa !8
  %27 = load ptr, ptr %15, align 8, !tbaa !8
  %28 = icmp eq ptr null, %27
  br i1 %28, label %29, label %30

29:                                               ; preds = %24
  store i32 -16, ptr %14, align 4, !tbaa !9
  br label %42

30:                                               ; preds = %24
  %31 = load ptr, ptr %15, align 8, !tbaa !8
  %32 = getelementptr inbounds nuw %struct.pmix_bfrop_type_info_t, ptr %31, i32 0, i32 3
  %33 = load ptr, ptr %32, align 8, !tbaa !20
  %34 = load ptr, ptr %7, align 8, !tbaa !3
  %35 = load ptr, ptr %8, align 8, !tbaa !8
  %36 = load ptr, ptr %12, align 8, !tbaa !8
  %37 = load i32, ptr %13, align 4, !tbaa !9
  %38 = sext i32 %37 to i64
  %39 = getelementptr inbounds %struct.pmix_kval_t, ptr %36, i64 %38
  %40 = getelementptr inbounds nuw %struct.pmix_kval_t, ptr %39, i32 0, i32 1
  %41 = call i32 %33(ptr noundef %34, ptr noundef %35, ptr noundef %40, i32 noundef 1, i16 noundef zeroext 3)
  store i32 %41, ptr %14, align 4, !tbaa !9
  br label %42

42:                                               ; preds = %30, %29
  call void @llvm.lifetime.end.p0(i64 8, ptr %15) #9
  br label %43

43:                                               ; preds = %42
  br label %44

44:                                               ; preds = %43
  %45 = load i32, ptr %14, align 4, !tbaa !9
  %46 = icmp ne i32 0, %45
  br i1 %46, label %47, label %49

47:                                               ; preds = %44
  %48 = load i32, ptr %14, align 4, !tbaa !9
  store i32 %48, ptr %6, align 4
  store i32 1, ptr %16, align 4
  br label %81

49:                                               ; preds = %44
  br label %50

50:                                               ; preds = %49
  call void @llvm.lifetime.start.p0(i64 8, ptr %17) #9
  %51 = load ptr, ptr %7, align 8, !tbaa !3
  %52 = call ptr @pmix_pointer_array_get_item(ptr noundef %51, i32 noundef 21)
  store ptr %52, ptr %17, align 8, !tbaa !8
  %53 = load ptr, ptr %17, align 8, !tbaa !8
  %54 = icmp eq ptr null, %53
  br i1 %54, label %55, label %56

55:                                               ; preds = %50
  store i32 -16, ptr %14, align 4, !tbaa !9
  br label %69

56:                                               ; preds = %50
  %57 = load ptr, ptr %17, align 8, !tbaa !8
  %58 = getelementptr inbounds nuw %struct.pmix_bfrop_type_info_t, ptr %57, i32 0, i32 3
  %59 = load ptr, ptr %58, align 8, !tbaa !20
  %60 = load ptr, ptr %7, align 8, !tbaa !3
  %61 = load ptr, ptr %8, align 8, !tbaa !8
  %62 = load ptr, ptr %12, align 8, !tbaa !8
  %63 = load i32, ptr %13, align 4, !tbaa !9
  %64 = sext i32 %63 to i64
  %65 = getelementptr inbounds %struct.pmix_kval_t, ptr %62, i64 %64
  %66 = getelementptr inbounds nuw %struct.pmix_kval_t, ptr %65, i32 0, i32 2
  %67 = load ptr, ptr %66, align 8, !tbaa !113
  %68 = call i32 %59(ptr noundef %60, ptr noundef %61, ptr noundef %67, i32 noundef 1, i16 noundef zeroext 21)
  store i32 %68, ptr %14, align 4, !tbaa !9
  br label %69

69:                                               ; preds = %56, %55
  call void @llvm.lifetime.end.p0(i64 8, ptr %17) #9
  br label %70

70:                                               ; preds = %69
  br label %71

71:                                               ; preds = %70
  %72 = load i32, ptr %14, align 4, !tbaa !9
  %73 = icmp ne i32 0, %72
  br i1 %73, label %74, label %76

74:                                               ; preds = %71
  %75 = load i32, ptr %14, align 4, !tbaa !9
  store i32 %75, ptr %6, align 4
  store i32 1, ptr %16, align 4
  br label %81

76:                                               ; preds = %71
  br label %77

77:                                               ; preds = %76
  %78 = load i32, ptr %13, align 4, !tbaa !9
  %79 = add nsw i32 %78, 1
  store i32 %79, ptr %13, align 4, !tbaa !9
  br label %19, !llvm.loop !115

80:                                               ; preds = %19
  store i32 0, ptr %6, align 4
  store i32 1, ptr %16, align 4
  br label %81

81:                                               ; preds = %80, %74, %47
  call void @llvm.lifetime.end.p0(i64 4, ptr %14) #9
  call void @llvm.lifetime.end.p0(i64 4, ptr %13) #9
  call void @llvm.lifetime.end.p0(i64 8, ptr %12) #9
  %82 = load i32, ptr %6, align 4
  ret i32 %82
}